target datalayout = "e-m:e-p270:32:32-p271:32:32-p272:64:64-i64:64-i128:128-f80:128-n8:16:32:64-S128"
target triple = "x86_64-pc-linux-gnu"

%struct.H5O_shared_t = type { i32, ptr, i32, %union.anon }
%union.anon = type { %struct.H5O_mesg_loc_t }
%struct.H5O_mesg_loc_t = type { i32, i64 }
%struct.H5O_fill_t = type { %struct.H5O_shared_t, i32, ptr, i64, ptr, i32, i32, i8 }
%struct.H5O_copy_t = type { i8, i8, i8, i8, i8, i8, i8, ptr, i32, i32, ptr, ptr, i8, ptr, ptr, ptr, ptr, ptr, i64 }

@H5O_fill_ver_bounds = constant [6 x i32] [i32 1, i32 3, i32 3, i32 3, i32 3, i32 3], align 16
@.str.3 = private unnamed_addr constant [101 x i8] c"generated/home/dtcxzyw/WorkSpace/Projects/compilers/llvm-opt-benchmark/bench/hdf5/hdf5/src/H5Ofill.c\00", align 1
@H5E_OHDR_g = external global i64, align 8
@H5E_BADRANGE_g = external global i64, align 8
@__func__.H5O__fill_pre_copy_file = private unnamed_addr constant [24 x i8] c"H5O__fill_pre_copy_file\00", align 1
@.str.59 = private unnamed_addr constant [41 x i8] c"fill value message version out of bounds\00", align 1

; Function Attrs: nounwind uwtable
define internal i32 @H5O__fill_pre_copy_file(ptr noundef %0, ptr noundef %1, ptr noundef %2, ptr noundef %3, ptr noundef %4) #0 {
  %6 = alloca ptr, align 8
  %7 = alloca ptr, align 8
  %8 = alloca ptr, align 8
  %9 = alloca ptr, align 8
  %10 = alloca ptr, align 8
  %11 = alloca ptr, align 8
  %12 = alloca i32, align 4
  %13 = alloca i8, align 1
  store ptr %0, ptr %6, align 8
  store ptr %1, ptr %7, align 8
  store ptr %2, ptr %8, align 8
  store ptr %3, ptr %9, align 8
  store ptr %4, ptr %10, align 8
  %14 = load ptr, ptr %7, align 8
  store ptr %14, ptr %11, align 8
  store i32 0, ptr %12, align 4
  store i8 0, ptr %13, align 1
  %15 = load ptr, ptr %11, align 8
  %16 = getelementptr inbounds %struct.H5O_fill_t, ptr %15, i32 0, i32 1
  %17 = load i32, ptr %16, align 8
  %18 = load ptr, ptr %9, align 8
  %19 = getelementptr inbounds %struct.H5O_copy_t, ptr %18, i32 0, i32 14
  %20 = load ptr, ptr %19, align 8
  %21 = call i32 @H5F_get_high_bound(ptr noundef %20)
  %22 = sext i32 %21 to i64
  %23 = getelementptr inbounds [6 x i32], ptr @H5O_fill_ver_bounds, i64 0, i64 %22
  %24 = load i32, ptr %23, align 4
  %25 = icmp ugt i32 %17, %24
  br i1 %25, label %26, label %41

26:                                               ; preds = %5
  br label %27

27:                                               ; preds = %26
  br label %28

28:                                               ; preds = %27
  br label %29

29:                                               ; preds = %28
  %30 = load i64, ptr @H5E_OHDR_g, align 8
  %31 = load i64, ptr @H5E_BADRANGE_g, align 8
  %32 = call i32 (ptr, ptr, i32, i64, i64, ptr, ...) @H5E_printf_stack(ptr noundef @.str.3, ptr noundef @__func__.H5O__fill_pre_copy_file, i32 noundef 824, i64 noundef %30, i64 noundef %31, ptr noundef @.str.59)
  br label %33

33:                                               ; preds = %29
  store i8 1, ptr %13, align 1
  %34 = load i8, ptr %13, align 1
  %35 = trunc i8 %34 to i1
  %36 = zext i1 %35 to i8
  store i8 %36, ptr %13, align 1
  br label %37

37:                                               ; preds = %33
  br label %38

38:                                               ; preds = %37
  store i32 -1, ptr %12, align 4
  br label %42

39:                                               ; No predecessors!
  br label %40

40:                                               ; preds = %39
  br label %41

41:                                               ; preds = %40, %5
  br label %42

42:                                               ; preds = %41, %38
  %43 = load i32, ptr %12, align 4
  ret i32 %43
}