; Function Attrs: nounwind uwtable
define internal range(i32 -1, 1) i32 @H5O__fill_pre_copy_file(ptr nocapture readnone %0, ptr nocapture noundef readonly %1, ptr nocapture readnone %2, ptr nocapture noundef readonly %3, ptr nocapture readnone %4) #0 {
  %6 = getelementptr inbounds i8, ptr %1, i64 40
  %7 = load i32, ptr %6, align 8
  %8 = getelementptr inbounds i8, ptr %3, i64 56
  %9 = load ptr, ptr %8, align 8
  %10 = tail call i32 @H5F_get_high_bound(ptr noundef %9) #8
  %11 = sext i32 %10 to i64
  %12 = getelementptr inbounds [6 x i32], ptr @H5O_fill_ver_bounds, i64 0, i64 %11
  %13 = load i32, ptr %12, align 4
  %14 = icmp ugt i32 %7, %13
  br i1 %14, label %15, label %19

15:                                               ; preds = %5
  %16 = load i64, ptr @H5E_OHDR_g, align 8
  %17 = load i64, ptr @H5E_BADRANGE_g, align 8
  %18 = tail call i32 (ptr, ptr, i32, i64, i64, ptr, ...) @H5E_printf_stack(ptr noundef nonnull @.str.3, ptr noundef nonnull @__func__.H5O__fill_pre_copy_file, i32 noundef 824, i64 noundef %16, i64 noundef %17, ptr noundef nonnull @.str.59) #8
  br label %19

19:                                               ; preds = %5, %15
  %.0 = phi i32 [ -1, %15 ], [ 0, %5 ]
  ret i32 %.0
}